; Function Attrs: nounwind uwtable
define void @avio_w8(ptr noundef captures(none) %0, i32 noundef %1) local_unnamed_addr #3 {
  %3 = trunc i32 %1 to i8
  %4 = getelementptr inbounds nuw i8, ptr %0, i64 24
  %5 = load ptr, ptr %4, align 8, !tbaa !16
  %6 = getelementptr inbounds nuw i8, ptr %5, i64 1
  store ptr %6, ptr %4, align 8, !tbaa !16
  store i8 %3, ptr %5, align 1, !tbaa !33
  %7 = load ptr, ptr %4, align 8, !tbaa !16
  %8 = getelementptr inbounds nuw i8, ptr %0, i64 32
  %9 = load ptr, ptr %8, align 8, !tbaa !19
  %.not = icmp ult ptr %7, %9
  br i1 %.not, label %11, label %10

10:                                               ; preds = %2
  tail call fastcc void @flush_buffer(ptr noundef nonnull %0)
  br label %11

11:                                               ; preds = %10, %2
  ret void
}